target datalayout = "e-m:e-p270:32:32-p271:32:32-p272:64:64-i64:64-i128:128-f80:128-n8:16:32:64-S128"
target triple = "x86_64-unknown-linux-gnu"

%struct.QTailQLink = type { ptr, ptr }
%struct.BlockDriverState = type { i32, i8, i8, i8, i8, i8, ptr, ptr, ptr, %struct.anon.0, i8, [4096 x i8], [4096 x i8], [4096 x i8], [16 x i8], ptr, [4096 x i8], %struct.BlockLimits, i32, i32, i32, i32, [32 x i8], %union.anon, %union.anon.1, %union.anon.2, i32, [16 x %struct.anon.3], ptr, %struct.anon.4, ptr, ptr, %struct.anon.5, ptr, ptr, i32, ptr, i64, i64, %struct.QemuMutex, %struct.anon.6, %struct.Stat64, i32, i32, i32, i32, i32, i32, %struct.QemuMutex, %struct.anon.7, %struct.CoQueue, i8, i32, i8, %struct.CoMutex, ptr, ptr }
%struct.anon.0 = type { ptr }
%struct.BlockLimits = type { i32, i64, i32, i64, i32, i32, i32, i64, i32, i64, i64, i32, i8, i32, i32, i32, i32, i32, i32, i32 }
%union.anon = type { %struct.QTailQLink }
%union.anon.1 = type { %struct.QTailQLink }
%union.anon.2 = type { %struct.QTailQLink }
%struct.anon.3 = type { ptr }
%struct.anon.4 = type { ptr }
%struct.anon.5 = type { ptr }
%struct.anon.6 = type { ptr }
%struct.Stat64 = type { i64 }
%struct.QemuMutex = type { %union.pthread_mutex_t, i8 }
%union.pthread_mutex_t = type { %struct.__pthread_mutex_s }
%struct.__pthread_mutex_s = type { i32, i32, i32, i32, i32, i16, i16, %struct.__pthread_internal_list }
%struct.__pthread_internal_list = type { ptr, ptr }
%struct.anon.7 = type { ptr }
%struct.CoQueue = type { %struct.anon.8 }
%struct.anon.8 = type { ptr, ptr }
%struct.CoMutex = type { i32, ptr, %struct.anon.9, %struct.anon.9, i32, i32, ptr }
%struct.anon.9 = type { ptr }
%struct.BDRVQuorumState = type { ptr, i32, i32, i32, i8, i8, i32 }
%struct.BdrvChild = type { ptr, ptr, ptr, i32, ptr, i64, i64, i8, i8, %struct.anon.10, %struct.anon.11 }
%struct.anon.10 = type { ptr, ptr }
%struct.anon.11 = type { ptr, ptr }

; Function Attrs: nounwind sspstrong uwtable
define internal i64 @quorum_co_getlength(ptr noundef %bs) #0 {
entry:
  %retval = alloca i64, align 8
  %bs.addr = alloca ptr, align 8
  %s = alloca ptr, align 8
  %result = alloca i64, align 8
  %i = alloca i32, align 4
  %value = alloca i64, align 8
  store ptr %bs, ptr %bs.addr, align 8
  %0 = load ptr, ptr %bs.addr, align 8
  %opaque = getelementptr inbounds %struct.BlockDriverState, ptr %0, i32 0, i32 7
  %1 = load ptr, ptr %opaque, align 8
  store ptr %1, ptr %s, align 8
  %2 = load ptr, ptr %s, align 8
  %children = getelementptr inbounds %struct.BDRVQuorumState, ptr %2, i32 0, i32 0
  %3 = load ptr, ptr %children, align 8
  %arrayidx = getelementptr ptr, ptr %3, i64 0
  %4 = load ptr, ptr %arrayidx, align 8
  %bs1 = getelementptr inbounds %struct.BdrvChild, ptr %4, i32 0, i32 0
  %5 = load ptr, ptr %bs1, align 8
  %call = call i64 @bdrv_co_getlength(ptr noundef %5)
  store i64 %call, ptr %result, align 8
  %6 = load i64, ptr %result, align 8
  %cmp = icmp slt i64 %6, 0
  br i1 %cmp, label %if.then, label %if.end

if.then:                                          ; preds = %entry
  %7 = load i64, ptr %result, align 8
  store i64 %7, ptr %retval, align 8
  br label %return

if.end:                                           ; preds = %entry
  store i32 1, ptr %i, align 4
  br label %for.cond

for.cond:                                         ; preds = %for.inc, %if.end
  %8 = load i32, ptr %i, align 4
  %9 = load ptr, ptr %s, align 8
  %num_children = getelementptr inbounds %struct.BDRVQuorumState, ptr %9, i32 0, i32 1
  %10 = load i32, ptr %num_children, align 8
  %cmp2 = icmp slt i32 %8, %10
  br i1 %cmp2, label %for.body, label %for.end

for.body:                                         ; preds = %for.cond
  %11 = load ptr, ptr %s, align 8
  %children3 = getelementptr inbounds %struct.BDRVQuorumState, ptr %11, i32 0, i32 0
  %12 = load ptr, ptr %children3, align 8
  %13 = load i32, ptr %i, align 4
  %idxprom = sext i32 %13 to i64
  %arrayidx4 = getelementptr ptr, ptr %12, i64 %idxprom
  %14 = load ptr, ptr %arrayidx4, align 8
  %bs5 = getelementptr inbounds %struct.BdrvChild, ptr %14, i32 0, i32 0
  %15 = load ptr, ptr %bs5, align 8
  %call6 = call i64 @bdrv_co_getlength(ptr noundef %15)
  store i64 %call6, ptr %value, align 8
  %16 = load i64, ptr %value, align 8
  %cmp7 = icmp slt i64 %16, 0
  br i1 %cmp7, label %if.then8, label %if.end9

if.then8:                                         ; preds = %for.body
  %17 = load i64, ptr %value, align 8
  store i64 %17, ptr %retval, align 8
  br label %return

if.end9:                                          ; preds = %for.body
  %18 = load i64, ptr %value, align 8
  %19 = load i64, ptr %result, align 8
  %cmp10 = icmp ne i64 %18, %19
  br i1 %cmp10, label %if.then11, label %if.end12

if.then11:                                        ; preds = %if.end9
  store i64 -5, ptr %retval, align 8
  br label %return

if.end12:                                         ; preds = %if.end9
  br label %for.inc

for.inc:                                          ; preds = %if.end12
  %20 = load i32, ptr %i, align 4
  %inc = add i32 %20, 1
  store i32 %inc, ptr %i, align 4
  br label %for.cond, !llvm.loop !16

for.end:                                          ; preds = %for.cond
  %21 = load i64, ptr %result, align 8
  store i64 %21, ptr %retval, align 8
  br label %return

return:                                           ; preds = %for.end, %if.then11, %if.then8, %if.then
  %22 = load i64, ptr %retval, align 8
  ret i64 %22
}