; Function Attrs: nounwind sspstrong uwtable
define internal i64 @quorum_co_getlength(ptr noundef readonly captures(none) %bs) #0 {
entry:
  %opaque = getelementptr inbounds nuw i8, ptr %bs, i64 24
  %0 = load ptr, ptr %opaque, align 8
  %1 = load ptr, ptr %0, align 8
  %2 = load ptr, ptr %1, align 8
  %3 = load ptr, ptr %2, align 8
  %call = tail call i64 @bdrv_co_getlength(ptr noundef %3) #17
  %cmp = icmp slt i64 %call, 0
  br i1 %cmp, label %return, label %for.cond.preheader

for.cond.preheader:                               ; preds = %entry
  %num_children = getelementptr inbounds nuw i8, ptr %0, i64 8
  %4 = load i32, ptr %num_children, align 8
  %cmp210 = icmp sgt i32 %4, 1
  br i1 %cmp210, label %for.body, label %return

for.cond:                                         ; preds = %if.end9
  %indvars.iv.next = add nuw nsw i64 %indvars.iv, 1
  %5 = load i32, ptr %num_children, align 8
  %6 = sext i32 %5 to i64
  %cmp2 = icmp slt i64 %indvars.iv.next, %6
  br i1 %cmp2, label %for.body, label %return, !llvm.loop !22

for.body:                                         ; preds = %for.cond.preheader, %for.cond
  %indvars.iv = phi i64 [ %indvars.iv.next, %for.cond ], [ 1, %for.cond.preheader ]
  %7 = load ptr, ptr %0, align 8
  %arrayidx4 = getelementptr ptr, ptr %7, i64 %indvars.iv
  %8 = load ptr, ptr %arrayidx4, align 8
  %9 = load ptr, ptr %8, align 8
  %call6 = tail call i64 @bdrv_co_getlength(ptr noundef %9) #17
  %cmp7 = icmp slt i64 %call6, 0
  br i1 %cmp7, label %return, label %if.end9

if.end9:                                          ; preds = %for.body
  %cmp10.not = icmp eq i64 %call6, %call
  br i1 %cmp10.not, label %for.cond, label %return

return:                                           ; preds = %for.body, %if.end9, %for.cond, %for.cond.preheader, %entry
  %retval.0 = phi i64 [ %call, %entry ], [ %call, %for.cond.preheader ], [ %call6, %for.body ], [ -5, %if.end9 ], [ %call, %for.cond ]
  ret i64 %retval.0
}